target datalayout = "e-m:e-p270:32:32-p271:32:32-p272:64:64-i64:64-i128:128-f80:128-n8:16:32:64-S128"
target triple = "x86_64-pc-linux-gnu"

%struct.sockaddr = type { i16, [14 x i8] }

@.str = private unnamed_addr constant [33 x i8] c"../openssl/crypto/bio/bio_addr.c\00", align 1

; Function Attrs: nounwind uwtable
define i32 @BIO_ADDR_make(ptr noundef %0, ptr noundef %1) #0 {
  %3 = alloca i32, align 4
  %4 = alloca ptr, align 8
  %5 = alloca ptr, align 8
  store ptr %0, ptr %4, align 8, !tbaa !3
  store ptr %1, ptr %5, align 8, !tbaa !9
  %6 = load ptr, ptr %5, align 8, !tbaa !9
  %7 = getelementptr inbounds nuw %struct.sockaddr, ptr %6, i32 0, i32 0
  %8 = load i16, ptr %7, align 2, !tbaa !11
  %9 = zext i16 %8 to i32
  %10 = icmp eq i32 %9, 2
  br i1 %10, label %11, label %14

11:                                               ; preds = %2
  %12 = load ptr, ptr %4, align 8, !tbaa !3
  %13 = load ptr, ptr %5, align 8, !tbaa !9
  call void @llvm.memcpy.p0.p0.i64(ptr align 4 %12, ptr align 2 %13, i64 16, i1 false)
  store i32 1, ptr %3, align 4
  br label %33

14:                                               ; preds = %2
  %15 = load ptr, ptr %5, align 8, !tbaa !9
  %16 = getelementptr inbounds nuw %struct.sockaddr, ptr %15, i32 0, i32 0
  %17 = load i16, ptr %16, align 2, !tbaa !11
  %18 = zext i16 %17 to i32
  %19 = icmp eq i32 %18, 10
  br i1 %19, label %20, label %23

20:                                               ; preds = %14
  %21 = load ptr, ptr %4, align 8, !tbaa !3
  %22 = load ptr, ptr %5, align 8, !tbaa !9
  call void @llvm.memcpy.p0.p0.i64(ptr align 4 %21, ptr align 2 %22, i64 28, i1 false)
  store i32 1, ptr %3, align 4
  br label %33

23:                                               ; preds = %14
  %24 = load ptr, ptr %5, align 8, !tbaa !9
  %25 = getelementptr inbounds nuw %struct.sockaddr, ptr %24, i32 0, i32 0
  %26 = load i16, ptr %25, align 2, !tbaa !11
  %27 = zext i16 %26 to i32
  %28 = icmp eq i32 %27, 1
  br i1 %28, label %29, label %32

29:                                               ; preds = %23
  %30 = load ptr, ptr %4, align 8, !tbaa !3
  %31 = load ptr, ptr %5, align 8, !tbaa !9
  call void @llvm.memcpy.p0.p0.i64(ptr align 4 %30, ptr align 2 %31, i64 110, i1 false)
  store i32 1, ptr %3, align 4
  br label %33

32:                                               ; preds = %23
  store i32 0, ptr %3, align 4
  br label %33

33:                                               ; preds = %32, %29, %20, %11
  %34 = load i32, ptr %3, align 4
  ret i32 %34
}

; Function Attrs: nounwind uwtable
define void @BIO_ADDR_clear(ptr noundef %0) #0 {
  %2 = alloca ptr, align 8
  store ptr %0, ptr %2, align 8, !tbaa !3
  %3 = load ptr, ptr %2, align 8, !tbaa !3
  call void @llvm.memset.p0.i64(ptr align 4 %3, i8 0, i64 112, i1 false)
  %4 = load ptr, ptr %2, align 8, !tbaa !3
  %5 = getelementptr inbounds nuw %struct.sockaddr, ptr %4, i32 0, i32 0
  store i16 0, ptr %5, align 4, !tbaa !8
  ret void
}

; Function Attrs: nounwind uwtable
define void @BIO_ADDR_free(ptr noundef %0) #0 {
  %2 = alloca ptr, align 8
  store ptr %0, ptr %2, align 8, !tbaa !3
  %3 = load ptr, ptr %2, align 8, !tbaa !3
  call void @CRYPTO_free(ptr noundef %3, ptr noundef @.str, i32 noundef 65)
  ret void
}

; Function Attrs: nounwind uwtable
define i32 @BIO_ADDR_copy(ptr noundef %0, ptr noundef %1) #0 {
  %3 = alloca i32, align 4
  %4 = alloca ptr, align 8
  %5 = alloca ptr, align 8
  store ptr %0, ptr %4, align 8, !tbaa !3
  store ptr %1, ptr %5, align 8, !tbaa !3
  %6 = load ptr, ptr %4, align 8, !tbaa !3
  %7 = icmp eq ptr %6, null
  br i1 %7, label %11, label %8

8:                                                ; preds = %2
  %9 = load ptr, ptr %5, align 8, !tbaa !3
  %10 = icmp eq ptr %9, null
  br i1 %10, label %11, label %12

11:                                               ; preds = %8, %2
  store i32 0, ptr %3, align 4
  br label %24

12:                                               ; preds = %8
  %13 = load ptr, ptr %5, align 8, !tbaa !3
  %14 = getelementptr inbounds nuw %struct.sockaddr, ptr %13, i32 0, i32 0
  %15 = load i16, ptr %14, align 4, !tbaa !8
  %16 = zext i16 %15 to i32
  %17 = icmp eq i32 %16, 0
  br i1 %17, label %18, label %20

18:                                               ; preds = %12
  %19 = load ptr, ptr %4, align 8, !tbaa !3
  call void @BIO_ADDR_clear(ptr noundef %19)
  store i32 1, ptr %3, align 4
  br label %24

20:                                               ; preds = %12
  %21 = load ptr, ptr %4, align 8, !tbaa !3
  %22 = load ptr, ptr %5, align 8, !tbaa !3
  %23 = call i32 @BIO_ADDR_make(ptr noundef %21, ptr noundef %22)
  store i32 %23, ptr %3, align 4
  br label %24

24:                                               ; preds = %20, %18, %11
  %25 = load i32, ptr %3, align 4
  ret i32 %25
}

; Function Attrs: nounwind uwtable
define ptr @BIO_ADDR_new() #0 {
  %1 = alloca ptr, align 8
  %2 = alloca ptr, align 8
  %3 = alloca i32, align 4
  call void @llvm.lifetime.start.p0(i64 8, ptr %2) #9
  %4 = call noalias ptr @CRYPTO_zalloc(i64 noundef 112, ptr noundef @.str, i32 noundef 54)
  store ptr %4, ptr %2, align 8, !tbaa !3
  %5 = load ptr, ptr %2, align 8, !tbaa !3
  %6 = icmp eq ptr %5, null
  br i1 %6, label %7, label %8

7:                                                ; preds = %0
  store ptr null, ptr %1, align 8
  store i32 1, ptr %3, align 4
  br label %12

8:                                                ; preds = %0
  %9 = load ptr, ptr %2, align 8, !tbaa !3
  %10 = getelementptr inbounds nuw %struct.sockaddr, ptr %9, i32 0, i32 0
  store i16 0, ptr %10, align 4, !tbaa !8
  %11 = load ptr, ptr %2, align 8, !tbaa !3
  store ptr %11, ptr %1, align 8
  store i32 1, ptr %3, align 4
  br label %12

12:                                               ; preds = %8, %7
  call void @llvm.lifetime.end.p0(i64 8, ptr %2) #9
  %13 = load ptr, ptr %1, align 8
  ret ptr %13
}

; Function Attrs: nounwind uwtable
define ptr @BIO_ADDR_dup(ptr noundef %0) #0 {
  %2 = alloca ptr, align 8
  %3 = alloca ptr, align 8
  store ptr %0, ptr %2, align 8, !tbaa !3
  call void @llvm.lifetime.start.p0(i64 8, ptr %3) #9
  store ptr null, ptr %3, align 8, !tbaa !3
  %4 = load ptr, ptr %2, align 8, !tbaa !3
  %5 = icmp ne ptr %4, null
  br i1 %5, label %6, label %18

6:                                                ; preds = %1
  %7 = call ptr @BIO_ADDR_new()
  store ptr %7, ptr %3, align 8, !tbaa !3
  %8 = load ptr, ptr %3, align 8, !tbaa !3
  %9 = icmp ne ptr %8, null
  br i1 %9, label %10, label %17

10:                                               ; preds = %6
  %11 = load ptr, ptr %3, align 8, !tbaa !3
  %12 = load ptr, ptr %2, align 8, !tbaa !3
  %13 = call i32 @BIO_ADDR_copy(ptr noundef %11, ptr noundef %12)
  %14 = icmp ne i32 %13, 0
  br i1 %14, label %17, label %15

15:                                               ; preds = %10
  %16 = load ptr, ptr %3, align 8, !tbaa !3
  call void @BIO_ADDR_free(ptr noundef %16)
  store ptr null, ptr %3, align 8, !tbaa !3
  br label %17

17:                                               ; preds = %15, %10, %6
  br label %18

18:                                               ; preds = %17, %1
  %19 = load ptr, ptr %3, align 8, !tbaa !3
  call void @llvm.lifetime.end.p0(i64 8, ptr %3) #9
  ret ptr %19
}