; Function Attrs: nounwind uwtable
define ptr @BIO_ADDR_dup(ptr noundef readonly captures(address_is_null) %0) local_unnamed_addr #0 {
  %.not = icmp eq ptr %0, null
  br i1 %.not, label %BIO_ADDR_new.exit.thread, label %2

2:                                                ; preds = %1
  %3 = tail call noalias ptr @CRYPTO_zalloc(i64 noundef 112, ptr noundef nonnull @.str, i32 noundef 54) #15
  %4 = icmp eq ptr %3, null
  br i1 %4, label %BIO_ADDR_new.exit.thread, label %5

5:                                                ; preds = %2
  store i16 0, ptr %3, align 4, !tbaa !3
  %6 = load i16, ptr %0, align 4, !tbaa !3
  switch i16 %6, label %BIO_ADDR_copy.exit [
    i16 0, label %7
    i16 2, label %8
    i16 10, label %9
    i16 1, label %10
  ]

7:                                                ; preds = %5
  tail call void @llvm.memset.p0.i64(ptr noundef nonnull align 4 dereferenceable(112) %3, i8 0, i64 112, i1 false)
  br label %BIO_ADDR_new.exit.thread

8:                                                ; preds = %5
  tail call void @llvm.memcpy.p0.p0.i64(ptr noundef nonnull align 4 dereferenceable(16) %3, ptr noundef nonnull readonly align 2 dereferenceable(16) %0, i64 16, i1 false)
  br label %BIO_ADDR_new.exit.thread

9:                                                ; preds = %5
  tail call void @llvm.memcpy.p0.p0.i64(ptr noundef nonnull align 4 dereferenceable(28) %3, ptr noundef nonnull readonly align 2 dereferenceable(28) %0, i64 28, i1 false)
  br label %BIO_ADDR_new.exit.thread

10:                                               ; preds = %5
  tail call void @llvm.memcpy.p0.p0.i64(ptr noundef nonnull align 4 dereferenceable(110) %3, ptr noundef nonnull readonly align 2 dereferenceable(110) %0, i64 110, i1 false)
  br label %BIO_ADDR_new.exit.thread

BIO_ADDR_copy.exit:                               ; preds = %5
  tail call void @CRYPTO_free(ptr noundef nonnull %3, ptr noundef nonnull @.str, i32 noundef 65) #15
  br label %BIO_ADDR_new.exit.thread

BIO_ADDR_new.exit.thread:                         ; preds = %10, %9, %8, %7, %2, %BIO_ADDR_copy.exit, %1
  %.0 = phi ptr [ null, %BIO_ADDR_copy.exit ], [ null, %1 ], [ null, %2 ], [ %3, %7 ], [ %3, %8 ], [ %3, %9 ], [ %3, %10 ]
  ret ptr %.0
}